target datalayout = "e-m:e-p270:32:32-p271:32:32-p272:64:64-i64:64-i128:128-f80:128-n8:16:32:64-S128"
target triple = "x86_64-pc-linux-gnu"

%"struct.Yosys::RTLIL::IdString" = type { i32 }
%"class.std::vector.8" = type { %"struct.std::_Vector_base.9" }
%"struct.std::_Vector_base.9" = type { %"struct.std::_Vector_base<int, std::allocator<int>>::_Vector_impl" }
%"struct.std::_Vector_base<int, std::allocator<int>>::_Vector_impl" = type { %"struct.std::_Vector_base<int, std::allocator<int>>::_Vector_impl_data" }
%"struct.std::_Vector_base<int, std::allocator<int>>::_Vector_impl_data" = type { ptr, ptr, ptr }
%"struct.Yosys::RTLIL::SigBit" = type <{ ptr, %union.anon.142, [4 x i8] }>
%union.anon.142 = type { i32 }
%"struct.Yosys::RTLIL::AttrObject" = type { %"class.Yosys::hashlib::dict.71" }
%"class.Yosys::hashlib::dict.71" = type <{ %"class.std::vector.8", %"class.std::vector.72", [8 x i8] }>
%"class.std::vector.72" = type { %"struct.std::_Vector_base.73" }
%"struct.std::_Vector_base.73" = type { %"struct.std::_Vector_base<Yosys::hashlib::dict<Yosys::RTLIL::IdString, Yosys::RTLIL::Const>::entry_t, std::allocator<Yosys::hashlib::dict<Yosys::RTLIL::IdString, Yosys::RTLIL::Const>::entry_t>>::_Vector_impl" }
%"struct.std::_Vector_base<Yosys::hashlib::dict<Yosys::RTLIL::IdString, Yosys::RTLIL::Const>::entry_t, std::allocator<Yosys::hashlib::dict<Yosys::RTLIL::IdString, Yosys::RTLIL::Const>::entry_t>>::_Vector_impl" = type { %"struct.std::_Vector_base<Yosys::hashlib::dict<Yosys::RTLIL::IdString, Yosys::RTLIL::Const>::entry_t, std::allocator<Yosys::hashlib::dict<Yosys::RTLIL::IdString, Yosys::RTLIL::Const>::entry_t>>::_Vector_impl_data" }
%"struct.std::_Vector_base<Yosys::hashlib::dict<Yosys::RTLIL::IdString, Yosys::RTLIL::Const>::entry_t, std::allocator<Yosys::hashlib::dict<Yosys::RTLIL::IdString, Yosys::RTLIL::Const>::entry_t>>::_Vector_impl_data" = type { ptr, ptr, ptr }
%"struct.Yosys::RTLIL::Wire" = type <{ %"struct.Yosys::RTLIL::AttrObject", i32, [4 x i8], ptr, %"struct.Yosys::RTLIL::IdString", [4 x i8], ptr, %"struct.Yosys::RTLIL::IdString", i32, i32, i32, i8, i8, i8, i8, [4 x i8] }>
%"struct.(anonymous namespace)::equiv_bit_t" = type { i32, i8, ptr, %"struct.Yosys::RTLIL::SigBit" }
%"class.__gnu_cxx::__normal_iterator.636" = type { ptr }
%"struct.__gnu_cxx::__ops::_Val_less_iter" = type { i8 }

; Function Attrs: inlinehint mustprogress nounwind uwtable
define linkonce_odr noundef zeroext i1 @_ZNK5Yosys5RTLIL8IdStringltERKS1_(ptr noundef nonnull align 4 dereferenceable(4) %0, ptr noundef nonnull align 4 dereferenceable(4) %1) #7 comdat align 2 {
  %3 = alloca ptr, align 8
  %4 = alloca ptr, align 8
  store ptr %0, ptr %3, align 8, !tbaa !359
  store ptr %1, ptr %4, align 8, !tbaa !359
  %5 = load ptr, ptr %3, align 8
  %6 = getelementptr inbounds nuw %"struct.Yosys::RTLIL::IdString", ptr %5, i32 0, i32 0
  %7 = load i32, ptr %6, align 4, !tbaa !389
  %8 = load ptr, ptr %4, align 8, !tbaa !359
  %9 = getelementptr inbounds nuw %"struct.Yosys::RTLIL::IdString", ptr %8, i32 0, i32 0
  %10 = load i32, ptr %9, align 4, !tbaa !389
  %11 = icmp slt i32 %7, %10
  ret i1 %11
}

; Function Attrs: inlinehint mustprogress uwtable
define linkonce_odr noundef zeroext i1 @_ZNK5Yosys5RTLIL6SigBitltERKS1_(ptr noundef nonnull align 8 dereferenceable(12) %0, ptr noundef nonnull align 8 dereferenceable(12) %1) #9 comdat align 2 {
  %3 = alloca i1, align 1
  %4 = alloca ptr, align 8
  %5 = alloca ptr, align 8
  store ptr %0, ptr %4, align 8, !tbaa !125
  store ptr %1, ptr %5, align 8, !tbaa !125
  %6 = load ptr, ptr %4, align 8
  %7 = getelementptr inbounds nuw %"struct.Yosys::RTLIL::SigBit", ptr %6, i32 0, i32 0
  %8 = load ptr, ptr %7, align 8, !tbaa !129
  %9 = load ptr, ptr %5, align 8, !tbaa !125
  %10 = getelementptr inbounds nuw %"struct.Yosys::RTLIL::SigBit", ptr %9, i32 0, i32 0
  %11 = load ptr, ptr %10, align 8, !tbaa !129
  %12 = icmp eq ptr %8, %11
  br i1 %12, label %13, label %35

13:                                               ; preds = %2
  %14 = getelementptr inbounds nuw %"struct.Yosys::RTLIL::SigBit", ptr %6, i32 0, i32 0
  %15 = load ptr, ptr %14, align 8, !tbaa !129
  %16 = icmp ne ptr %15, null
  br i1 %16, label %17, label %24

17:                                               ; preds = %13
  %18 = getelementptr inbounds nuw %"struct.Yosys::RTLIL::SigBit", ptr %6, i32 0, i32 1
  %19 = load i32, ptr %18, align 8, !tbaa !47
  %20 = load ptr, ptr %5, align 8, !tbaa !125
  %21 = getelementptr inbounds nuw %"struct.Yosys::RTLIL::SigBit", ptr %20, i32 0, i32 1
  %22 = load i32, ptr %21, align 8, !tbaa !47
  %23 = icmp slt i32 %19, %22
  br label %33

24:                                               ; preds = %13
  %25 = getelementptr inbounds nuw %"struct.Yosys::RTLIL::SigBit", ptr %6, i32 0, i32 1
  %26 = load i8, ptr %25, align 8, !tbaa !47
  %27 = zext i8 %26 to i32
  %28 = load ptr, ptr %5, align 8, !tbaa !125
  %29 = getelementptr inbounds nuw %"struct.Yosys::RTLIL::SigBit", ptr %28, i32 0, i32 1
  %30 = load i8, ptr %29, align 8, !tbaa !47
  %31 = zext i8 %30 to i32
  %32 = icmp slt i32 %27, %31
  br label %33

33:                                               ; preds = %24, %17
  %34 = phi i1 [ %23, %17 ], [ %32, %24 ]
  store i1 %34, ptr %3, align 1
  br label %64

35:                                               ; preds = %2
  %36 = getelementptr inbounds nuw %"struct.Yosys::RTLIL::SigBit", ptr %6, i32 0, i32 0
  %37 = load ptr, ptr %36, align 8, !tbaa !129
  %38 = icmp ne ptr %37, null
  br i1 %38, label %39, label %53

39:                                               ; preds = %35
  %40 = load ptr, ptr %5, align 8, !tbaa !125
  %41 = getelementptr inbounds nuw %"struct.Yosys::RTLIL::SigBit", ptr %40, i32 0, i32 0
  %42 = load ptr, ptr %41, align 8, !tbaa !129
  %43 = icmp ne ptr %42, null
  br i1 %43, label %44, label %53

44:                                               ; preds = %39
  %45 = getelementptr inbounds nuw %"struct.Yosys::RTLIL::SigBit", ptr %6, i32 0, i32 0
  %46 = load ptr, ptr %45, align 8, !tbaa !129
  %47 = getelementptr inbounds nuw %"struct.Yosys::RTLIL::Wire", ptr %46, i32 0, i32 7
  %48 = load ptr, ptr %5, align 8, !tbaa !125
  %49 = getelementptr inbounds nuw %"struct.Yosys::RTLIL::SigBit", ptr %48, i32 0, i32 0
  %50 = load ptr, ptr %49, align 8, !tbaa !129
  %51 = getelementptr inbounds nuw %"struct.Yosys::RTLIL::Wire", ptr %50, i32 0, i32 7
  %52 = call noundef zeroext i1 @_ZNK5Yosys5RTLIL8IdStringltERKS1_(ptr noundef nonnull align 4 dereferenceable(4) %47, ptr noundef nonnull align 4 dereferenceable(4) %51)
  store i1 %52, ptr %3, align 1
  br label %64

53:                                               ; preds = %39, %35
  %54 = getelementptr inbounds nuw %"struct.Yosys::RTLIL::SigBit", ptr %6, i32 0, i32 0
  %55 = load ptr, ptr %54, align 8, !tbaa !129
  %56 = icmp ne ptr %55, null
  %57 = zext i1 %56 to i32
  %58 = load ptr, ptr %5, align 8, !tbaa !125
  %59 = getelementptr inbounds nuw %"struct.Yosys::RTLIL::SigBit", ptr %58, i32 0, i32 0
  %60 = load ptr, ptr %59, align 8, !tbaa !129
  %61 = icmp ne ptr %60, null
  %62 = zext i1 %61 to i32
  %63 = icmp slt i32 %57, %62
  store i1 %63, ptr %3, align 1
  br label %64

64:                                               ; preds = %53, %44, %33
  %65 = load i1, ptr %3, align 1
  ret i1 %65
}

; Function Attrs: mustprogress uwtable
define internal noundef zeroext i1 @_ZNK12_GLOBAL__N_111equiv_bit_tltERKS0_(ptr noundef nonnull align 8 dereferenceable(32) %0, ptr noundef nonnull align 8 dereferenceable(32) %1) #5 align 2 {
  %3 = alloca i1, align 1
  %4 = alloca ptr, align 8
  %5 = alloca ptr, align 8
  store ptr %0, ptr %4, align 8, !tbaa !491
  store ptr %1, ptr %5, align 8, !tbaa !491
  %6 = load ptr, ptr %4, align 8
  %7 = getelementptr inbounds nuw %"struct.(anonymous namespace)::equiv_bit_t", ptr %6, i32 0, i32 0
  %8 = load i32, ptr %7, align 8, !tbaa !483
  %9 = load ptr, ptr %5, align 8, !tbaa !491
  %10 = getelementptr inbounds nuw %"struct.(anonymous namespace)::equiv_bit_t", ptr %9, i32 0, i32 0
  %11 = load i32, ptr %10, align 8, !tbaa !483
  %12 = icmp ne i32 %8, %11
  br i1 %12, label %13, label %20

13:                                               ; preds = %2
  %14 = getelementptr inbounds nuw %"struct.(anonymous namespace)::equiv_bit_t", ptr %6, i32 0, i32 0
  %15 = load i32, ptr %14, align 8, !tbaa !483
  %16 = load ptr, ptr %5, align 8, !tbaa !491
  %17 = getelementptr inbounds nuw %"struct.(anonymous namespace)::equiv_bit_t", ptr %16, i32 0, i32 0
  %18 = load i32, ptr %17, align 8, !tbaa !483
  %19 = icmp slt i32 %15, %18
  store i1 %19, ptr %3, align 1
  br label %61

20:                                               ; preds = %2
  %21 = getelementptr inbounds nuw %"struct.(anonymous namespace)::equiv_bit_t", ptr %6, i32 0, i32 1
  %22 = load i8, ptr %21, align 4, !tbaa !144, !range !113, !noundef !114
  %23 = trunc i8 %22 to i1
  %24 = zext i1 %23 to i32
  %25 = load ptr, ptr %5, align 8, !tbaa !491
  %26 = getelementptr inbounds nuw %"struct.(anonymous namespace)::equiv_bit_t", ptr %25, i32 0, i32 1
  %27 = load i8, ptr %26, align 4, !tbaa !144, !range !113, !noundef !114
  %28 = trunc i8 %27 to i1
  %29 = zext i1 %28 to i32
  %30 = icmp ne i32 %24, %29
  br i1 %30, label %31, label %42

31:                                               ; preds = %20
  %32 = getelementptr inbounds nuw %"struct.(anonymous namespace)::equiv_bit_t", ptr %6, i32 0, i32 1
  %33 = load i8, ptr %32, align 4, !tbaa !144, !range !113, !noundef !114
  %34 = trunc i8 %33 to i1
  %35 = zext i1 %34 to i32
  %36 = load ptr, ptr %5, align 8, !tbaa !491
  %37 = getelementptr inbounds nuw %"struct.(anonymous namespace)::equiv_bit_t", ptr %36, i32 0, i32 1
  %38 = load i8, ptr %37, align 4, !tbaa !144, !range !113, !noundef !114
  %39 = trunc i8 %38 to i1
  %40 = zext i1 %39 to i32
  %41 = icmp slt i32 %35, %40
  store i1 %41, ptr %3, align 1
  br label %61

42:                                               ; preds = %20
  %43 = getelementptr inbounds nuw %"struct.(anonymous namespace)::equiv_bit_t", ptr %6, i32 0, i32 2
  %44 = load ptr, ptr %43, align 8, !tbaa !484
  %45 = load ptr, ptr %5, align 8, !tbaa !491
  %46 = getelementptr inbounds nuw %"struct.(anonymous namespace)::equiv_bit_t", ptr %45, i32 0, i32 2
  %47 = load ptr, ptr %46, align 8, !tbaa !484
  %48 = icmp ne ptr %44, %47
  br i1 %48, label %49, label %56

49:                                               ; preds = %42
  %50 = getelementptr inbounds nuw %"struct.(anonymous namespace)::equiv_bit_t", ptr %6, i32 0, i32 2
  %51 = load ptr, ptr %50, align 8, !tbaa !484
  %52 = load ptr, ptr %5, align 8, !tbaa !491
  %53 = getelementptr inbounds nuw %"struct.(anonymous namespace)::equiv_bit_t", ptr %52, i32 0, i32 2
  %54 = load ptr, ptr %53, align 8, !tbaa !484
  %55 = icmp ult ptr %51, %54
  store i1 %55, ptr %3, align 1
  br label %61

56:                                               ; preds = %42
  %57 = getelementptr inbounds nuw %"struct.(anonymous namespace)::equiv_bit_t", ptr %6, i32 0, i32 3
  %58 = load ptr, ptr %5, align 8, !tbaa !491
  %59 = getelementptr inbounds nuw %"struct.(anonymous namespace)::equiv_bit_t", ptr %58, i32 0, i32 3
  %60 = call noundef zeroext i1 @_ZNK5Yosys5RTLIL6SigBitltERKS1_(ptr noundef nonnull align 8 dereferenceable(12) %57, ptr noundef nonnull align 8 dereferenceable(12) %59)
  store i1 %60, ptr %3, align 1
  br label %61

61:                                               ; preds = %56, %49, %31, %13
  %62 = load i1, ptr %3, align 1
  ret i1 %62
}

; Function Attrs: mustprogress uwtable
define internal noundef zeroext i1 @_ZNK9__gnu_cxx5__ops14_Val_less_iterclIN12_GLOBAL__N_111equiv_bit_tENS_17__normal_iteratorIPS4_St6vectorIS4_SaIS4_EEEEEEbRT_T0_(ptr noundef nonnull align 1 dereferenceable(1) %0, ptr noundef nonnull align 8 dereferenceable(32) %1, ptr %2) #5 align 2 {
  %4 = alloca %"class.__gnu_cxx::__normal_iterator.636", align 8
  %5 = alloca ptr, align 8
  %6 = alloca ptr, align 8
  %7 = getelementptr inbounds nuw %"class.__gnu_cxx::__normal_iterator.636", ptr %4, i32 0, i32 0
  store ptr %2, ptr %7, align 8
  store ptr %0, ptr %5, align 8, !tbaa !1473
  store ptr %1, ptr %6, align 8, !tbaa !491
  %8 = load ptr, ptr %6, align 8, !tbaa !491
  %9 = call noundef nonnull align 8 dereferenceable(32) ptr @_ZNK9__gnu_cxx17__normal_iteratorIPN12_GLOBAL__N_111equiv_bit_tESt6vectorIS2_SaIS2_EEEdeEv(ptr noundef nonnull align 8 dereferenceable(8) %4) #3
  %10 = call noundef zeroext i1 @_ZNK12_GLOBAL__N_111equiv_bit_tltERKS0_(ptr noundef nonnull align 8 dereferenceable(32) %8, ptr noundef nonnull align 8 dereferenceable(32) %9)
  ret i1 %10
}

; Function Attrs: mustprogress nounwind uwtable
define internal noundef nonnull align 8 dereferenceable(8) ptr @_ZN9__gnu_cxx17__normal_iteratorIPN12_GLOBAL__N_111equiv_bit_tESt6vectorIS2_SaIS2_EEEmmEv(ptr noundef nonnull align 8 dereferenceable(8) %0) #4 align 2 {
  %2 = alloca ptr, align 8
  store ptr %0, ptr %2, align 8, !tbaa !1375
  %3 = load ptr, ptr %2, align 8
  %4 = getelementptr inbounds nuw %"class.__gnu_cxx::__normal_iterator.636", ptr %3, i32 0, i32 0
  %5 = load ptr, ptr %4, align 8, !tbaa !1379
  %6 = getelementptr inbounds %"struct.(anonymous namespace)::equiv_bit_t", ptr %5, i32 -1
  store ptr %6, ptr %4, align 8, !tbaa !1379
  ret ptr %3
}

; Function Attrs: mustprogress nounwind uwtable
define internal noundef nonnull align 8 dereferenceable(32) ptr @_ZNK9__gnu_cxx17__normal_iteratorIPN12_GLOBAL__N_111equiv_bit_tESt6vectorIS2_SaIS2_EEEdeEv(ptr noundef nonnull align 8 dereferenceable(8) %0) #4 align 2 {
  %2 = alloca ptr, align 8
  store ptr %0, ptr %2, align 8, !tbaa !1375
  %3 = load ptr, ptr %2, align 8
  %4 = getelementptr inbounds nuw %"class.__gnu_cxx::__normal_iterator.636", ptr %3, i32 0, i32 0
  %5 = load ptr, ptr %4, align 8, !tbaa !1379
  ret ptr %5
}

; Function Attrs: mustprogress uwtable
define internal void @_ZSt25__unguarded_linear_insertIN9__gnu_cxx17__normal_iteratorIPN12_GLOBAL__N_111equiv_bit_tESt6vectorIS3_SaIS3_EEEENS0_5__ops14_Val_less_iterEEvT_T0_(ptr %0) #5 {
  %2 = alloca %"class.__gnu_cxx::__normal_iterator.636", align 8
  %3 = alloca %"struct.__gnu_cxx::__ops::_Val_less_iter", align 1
  %4 = alloca %"struct.(anonymous namespace)::equiv_bit_t", align 8
  %5 = alloca %"class.__gnu_cxx::__normal_iterator.636", align 8
  %6 = alloca %"class.__gnu_cxx::__normal_iterator.636", align 8
  %7 = getelementptr inbounds nuw %"class.__gnu_cxx::__normal_iterator.636", ptr %2, i32 0, i32 0
  store ptr %0, ptr %7, align 8
  call void @llvm.lifetime.start.p0(i64 32, ptr %4) #3
  %8 = call noundef nonnull align 8 dereferenceable(32) ptr @_ZNK9__gnu_cxx17__normal_iteratorIPN12_GLOBAL__N_111equiv_bit_tESt6vectorIS2_SaIS2_EEEdeEv(ptr noundef nonnull align 8 dereferenceable(8) %2) #3
  call void @llvm.memcpy.p0.p0.i64(ptr align 8 %4, ptr align 8 %8, i64 32, i1 false), !tbaa.struct !1374
  call void @llvm.lifetime.start.p0(i64 8, ptr %5) #3
  call void @llvm.memcpy.p0.p0.i64(ptr align 8 %5, ptr align 8 %2, i64 8, i1 false), !tbaa.struct !1390
  %9 = call noundef nonnull align 8 dereferenceable(8) ptr @_ZN9__gnu_cxx17__normal_iteratorIPN12_GLOBAL__N_111equiv_bit_tESt6vectorIS2_SaIS2_EEEmmEv(ptr noundef nonnull align 8 dereferenceable(8) %5) #3
  br label %10

10:                                               ; preds = %14, %1
  call void @llvm.memcpy.p0.p0.i64(ptr align 8 %6, ptr align 8 %5, i64 8, i1 false), !tbaa.struct !1390
  %11 = getelementptr inbounds nuw %"class.__gnu_cxx::__normal_iterator.636", ptr %6, i32 0, i32 0
  %12 = load ptr, ptr %11, align 8
  %13 = call noundef zeroext i1 @_ZNK9__gnu_cxx5__ops14_Val_less_iterclIN12_GLOBAL__N_111equiv_bit_tENS_17__normal_iteratorIPS4_St6vectorIS4_SaIS4_EEEEEEbRT_T0_(ptr noundef nonnull align 1 dereferenceable(1) %3, ptr noundef nonnull align 8 dereferenceable(32) %4, ptr %12)
  br i1 %13, label %14, label %18

14:                                               ; preds = %10
  %15 = call noundef nonnull align 8 dereferenceable(32) ptr @_ZNK9__gnu_cxx17__normal_iteratorIPN12_GLOBAL__N_111equiv_bit_tESt6vectorIS2_SaIS2_EEEdeEv(ptr noundef nonnull align 8 dereferenceable(8) %5) #3
  %16 = call noundef nonnull align 8 dereferenceable(32) ptr @_ZNK9__gnu_cxx17__normal_iteratorIPN12_GLOBAL__N_111equiv_bit_tESt6vectorIS2_SaIS2_EEEdeEv(ptr noundef nonnull align 8 dereferenceable(8) %2) #3
  call void @llvm.memcpy.p0.p0.i64(ptr align 8 %16, ptr align 8 %15, i64 32, i1 false), !tbaa.struct !1374
  call void @llvm.memcpy.p0.p0.i64(ptr align 8 %2, ptr align 8 %5, i64 8, i1 false), !tbaa.struct !1390
  %17 = call noundef nonnull align 8 dereferenceable(8) ptr @_ZN9__gnu_cxx17__normal_iteratorIPN12_GLOBAL__N_111equiv_bit_tESt6vectorIS2_SaIS2_EEEmmEv(ptr noundef nonnull align 8 dereferenceable(8) %5) #3
  br label %10, !llvm.loop !1472

18:                                               ; preds = %10
  %19 = call noundef nonnull align 8 dereferenceable(32) ptr @_ZNK9__gnu_cxx17__normal_iteratorIPN12_GLOBAL__N_111equiv_bit_tESt6vectorIS2_SaIS2_EEEdeEv(ptr noundef nonnull align 8 dereferenceable(8) %2) #3
  call void @llvm.memcpy.p0.p0.i64(ptr align 8 %19, ptr align 8 %4, i64 32, i1 false), !tbaa.struct !1374
  call void @llvm.lifetime.end.p0(i64 8, ptr %5) #3
  call void @llvm.lifetime.end.p0(i64 32, ptr %4) #3
  ret void
}