; Function Attrs: mustprogress nofree norecurse nosync nounwind memory(read, argmem: readwrite, inaccessiblemem: none) uwtable
define internal fastcc void @_ZSt25__unguarded_linear_insertIN9__gnu_cxx17__normal_iteratorIPN12_GLOBAL__N_111equiv_bit_tESt6vectorIS3_SaIS3_EEEENS0_5__ops14_Val_less_iterEEvT_T0_(ptr captures(none) %0) unnamed_addr #24 {
  %.sroa.6 = alloca [3 x i8], align 1
  call void @llvm.lifetime.start.p0(i64 3, ptr nonnull %.sroa.6)
  %.sroa.05.0.copyload = load i32, ptr %0, align 8, !tbaa !18
  %.sroa.5.0..val3.sroa_idx = getelementptr inbounds nuw i8, ptr %0, i64 4
  %.sroa.5.0.copyload = load i8, ptr %.sroa.5.0..val3.sroa_idx, align 4, !tbaa !132
  %.sroa.6.0..val3.sroa_idx = getelementptr inbounds nuw i8, ptr %0, i64 5
  call void @llvm.memcpy.p0.p0.i64(ptr noundef nonnull align 1 dereferenceable(3) %.sroa.6, ptr noundef nonnull align 1 dereferenceable(3) %.sroa.6.0..val3.sroa_idx, i64 3, i1 false), !tbaa.struct !394
  %.sroa.68.0..val3.sroa_idx = getelementptr inbounds nuw i8, ptr %0, i64 8
  %.sroa.68.0.copyload = load ptr, ptr %.sroa.68.0..val3.sroa_idx, align 8, !tbaa !364
  %.sroa.7.0..val3.sroa_idx = getelementptr inbounds nuw i8, ptr %0, i64 16
  %.sroa.7.0.copyload = load ptr, ptr %.sroa.7.0..val3.sroa_idx, align 8, !tbaa !161
  %.sroa.7.0.copyload.fr = freeze ptr %.sroa.7.0.copyload
  %.sroa.8.0..val3.sroa_idx = getelementptr inbounds nuw i8, ptr %0, i64 24
  %.sroa.8.0.copyload = load i32, ptr %.sroa.8.0..val3.sroa_idx, align 8, !tbaa !16
  %.sroa.8.sroa.0.0.extract.trunc = trunc i32 %.sroa.8.0.copyload to i8
  %.sroa.10.0..val3.sroa_idx = getelementptr inbounds nuw i8, ptr %0, i64 28
  %.sroa.10.0.copyload = load i32, ptr %.sroa.10.0..val3.sroa_idx, align 4
  %2 = getelementptr inbounds nuw i8, ptr %.sroa.7.0.copyload.fr, i64 88
  %.not12.i.i.i = icmp eq ptr %.sroa.7.0.copyload.fr, null
  br i1 %.not12.i.i.i, label %.split.us, label %.split

.split.us:                                        ; preds = %1, %23
  %.sroa.022.0.us = phi ptr [ %.sroa.0.0.us, %23 ], [ %0, %1 ]
  %.sroa.0.0.us = getelementptr inbounds i8, ptr %.sroa.022.0.us, i64 -32
  %3 = load i32, ptr %.sroa.0.0.us, align 8, !tbaa !395
  %.not.i.i.us = icmp eq i32 %.sroa.05.0.copyload, %3
  br i1 %.not.i.i.us, label %6, label %4

4:                                                ; preds = %.split.us
  %5 = icmp slt i32 %.sroa.05.0.copyload, %3
  br i1 %5, label %23, label %.split24.us

6:                                                ; preds = %.split.us
  %7 = getelementptr inbounds i8, ptr %.sroa.022.0.us, i64 -28
  %8 = load i8, ptr %7, align 4, !tbaa !397, !range !98, !noundef !99
  %.not15.i.i.us = icmp eq i8 %.sroa.5.0.copyload, %8
  br i1 %.not15.i.i.us, label %11, label %9

9:                                                ; preds = %6
  %10 = icmp samesign ult i8 %.sroa.5.0.copyload, %8
  br i1 %10, label %23, label %.split24.us

11:                                               ; preds = %6
  %12 = getelementptr inbounds i8, ptr %.sroa.022.0.us, i64 -24
  %13 = load ptr, ptr %12, align 8, !tbaa !398
  %.not16.i.i.us = icmp eq ptr %.sroa.68.0.copyload, %13
  br i1 %.not16.i.i.us, label %16, label %14

14:                                               ; preds = %11
  %15 = icmp ult ptr %.sroa.68.0.copyload, %13
  br i1 %15, label %23, label %.split24.us

16:                                               ; preds = %11
  %17 = getelementptr inbounds i8, ptr %.sroa.022.0.us, i64 -16
  %18 = load ptr, ptr %17, align 8, !tbaa !181
  %19 = icmp eq ptr %18, null
  br i1 %19, label %_ZNK9__gnu_cxx5__ops14_Val_less_iterclIN12_GLOBAL__N_111equiv_bit_tENS_17__normal_iteratorIPS4_St6vectorIS4_SaIS4_EEEEEEbRT_T0_.exit.us, label %23

_ZNK9__gnu_cxx5__ops14_Val_less_iterclIN12_GLOBAL__N_111equiv_bit_tENS_17__normal_iteratorIPS4_St6vectorIS4_SaIS4_EEEEEEbRT_T0_.exit.us: ; preds = %16
  %20 = getelementptr inbounds i8, ptr %.sroa.022.0.us, i64 -8
  %21 = load i8, ptr %20, align 8, !tbaa !16
  %22 = icmp ugt i8 %21, %.sroa.8.sroa.0.0.extract.trunc
  br i1 %22, label %23, label %.split24.us

23:                                               ; preds = %16, %_ZNK9__gnu_cxx5__ops14_Val_less_iterclIN12_GLOBAL__N_111equiv_bit_tENS_17__normal_iteratorIPS4_St6vectorIS4_SaIS4_EEEEEEbRT_T0_.exit.us, %14, %9, %4
  tail call void @llvm.memcpy.p0.p0.i64(ptr noundef nonnull align 8 dereferenceable(32) %.sroa.022.0.us, ptr noundef nonnull align 8 dereferenceable(32) %.sroa.0.0.us, i64 32, i1 false), !tbaa.struct !365
  br label %.split.us, !llvm.loop !399

.split:                                           ; preds = %1, %51
  %.sroa.022.0 = phi ptr [ %.sroa.0.0, %51 ], [ %0, %1 ]
  %.sroa.0.0 = getelementptr inbounds i8, ptr %.sroa.022.0, i64 -32
  %24 = load i32, ptr %.sroa.0.0, align 8, !tbaa !395
  %.not.i.i = icmp eq i32 %.sroa.05.0.copyload, %24
  br i1 %.not.i.i, label %27, label %25

25:                                               ; preds = %.split
  %26 = icmp slt i32 %.sroa.05.0.copyload, %24
  br i1 %26, label %51, label %.split24.us

27:                                               ; preds = %.split
  %28 = getelementptr inbounds i8, ptr %.sroa.022.0, i64 -28
  %29 = load i8, ptr %28, align 4, !tbaa !397, !range !98, !noundef !99
  %.not15.i.i = icmp eq i8 %.sroa.5.0.copyload, %29
  br i1 %.not15.i.i, label %32, label %30

30:                                               ; preds = %27
  %31 = icmp samesign ult i8 %.sroa.5.0.copyload, %29
  br i1 %31, label %51, label %.split24.us

32:                                               ; preds = %27
  %33 = getelementptr inbounds i8, ptr %.sroa.022.0, i64 -24
  %34 = load ptr, ptr %33, align 8, !tbaa !398
  %.not16.i.i = icmp eq ptr %.sroa.68.0.copyload, %34
  br i1 %.not16.i.i, label %37, label %35

35:                                               ; preds = %32
  %36 = icmp ult ptr %.sroa.68.0.copyload, %34
  br i1 %36, label %51, label %.split24.us

37:                                               ; preds = %32
  %38 = getelementptr inbounds i8, ptr %.sroa.022.0, i64 -16
  %39 = load ptr, ptr %38, align 8, !tbaa !181
  %40 = icmp eq ptr %.sroa.7.0.copyload.fr, %39
  br i1 %40, label %41, label %45

41:                                               ; preds = %37
  %42 = getelementptr inbounds i8, ptr %.sroa.022.0, i64 -8
  %43 = load i32, ptr %42, align 8, !tbaa !16
  %44 = icmp slt i32 %.sroa.8.0.copyload, %43
  br i1 %44, label %51, label %.split24.us

45:                                               ; preds = %37
  %.not10.i.i.i = icmp eq ptr %39, null
  br i1 %.not10.i.i.i, label %.split24.us, label %46

46:                                               ; preds = %45
  %47 = getelementptr inbounds nuw i8, ptr %39, i64 88
  %48 = load i32, ptr %2, align 4, !tbaa !129
  %49 = load i32, ptr %47, align 4, !tbaa !129
  %50 = icmp slt i32 %48, %49
  br i1 %50, label %51, label %.split24.us

51:                                               ; preds = %41, %46, %35, %30, %25
  tail call void @llvm.memcpy.p0.p0.i64(ptr noundef nonnull align 8 dereferenceable(32) %.sroa.022.0, ptr noundef nonnull align 8 dereferenceable(32) %.sroa.0.0, i64 32, i1 false), !tbaa.struct !365
  br label %.split, !llvm.loop !399

.split24.us:                                      ; preds = %25, %30, %35, %46, %41, %45, %4, %9, %14, %_ZNK9__gnu_cxx5__ops14_Val_less_iterclIN12_GLOBAL__N_111equiv_bit_tENS_17__normal_iteratorIPS4_St6vectorIS4_SaIS4_EEEEEEbRT_T0_.exit.us
  %.us-phi = phi ptr [ %.sroa.022.0.us, %_ZNK9__gnu_cxx5__ops14_Val_less_iterclIN12_GLOBAL__N_111equiv_bit_tENS_17__normal_iteratorIPS4_St6vectorIS4_SaIS4_EEEEEEbRT_T0_.exit.us ], [ %.sroa.022.0.us, %14 ], [ %.sroa.022.0.us, %9 ], [ %.sroa.022.0.us, %4 ], [ %.sroa.022.0, %45 ], [ %.sroa.022.0, %41 ], [ %.sroa.022.0, %46 ], [ %.sroa.022.0, %35 ], [ %.sroa.022.0, %30 ], [ %.sroa.022.0, %25 ]
  store i32 %.sroa.05.0.copyload, ptr %.us-phi, align 8, !tbaa !18
  %.sroa.5.0..val.sroa_idx = getelementptr inbounds nuw i8, ptr %.us-phi, i64 4
  store i8 %.sroa.5.0.copyload, ptr %.sroa.5.0..val.sroa_idx, align 4, !tbaa !132
  %.sroa.6.0..val.sroa_idx = getelementptr inbounds nuw i8, ptr %.us-phi, i64 5
  call void @llvm.memcpy.p0.p0.i64(ptr noundef nonnull align 1 dereferenceable(3) %.sroa.6.0..val.sroa_idx, ptr noundef nonnull align 1 dereferenceable(3) %.sroa.6, i64 3, i1 false), !tbaa.struct !394
  %.sroa.68.0..val.sroa_idx = getelementptr inbounds nuw i8, ptr %.us-phi, i64 8
  store ptr %.sroa.68.0.copyload, ptr %.sroa.68.0..val.sroa_idx, align 8, !tbaa !364
  %.sroa.7.0..val.sroa_idx = getelementptr inbounds nuw i8, ptr %.us-phi, i64 16
  store ptr %.sroa.7.0.copyload.fr, ptr %.sroa.7.0..val.sroa_idx, align 8, !tbaa !161
  %.sroa.8.0..val.sroa_idx = getelementptr inbounds nuw i8, ptr %.us-phi, i64 24
  store i32 %.sroa.8.0.copyload, ptr %.sroa.8.0..val.sroa_idx, align 8, !tbaa !16
  %.sroa.10.0..val.sroa_idx = getelementptr inbounds nuw i8, ptr %.us-phi, i64 28
  store i32 %.sroa.10.0.copyload, ptr %.sroa.10.0..val.sroa_idx, align 4
  call void @llvm.lifetime.end.p0(i64 3, ptr nonnull %.sroa.6)
  ret void
}